((dp0
S'\x83'
p1
I94
sS'\x87'
p2
I104
sS'\x8b'
p3
I105
sS'\x8f'
p4
I92
sS'\x93'
p5
I82
sS'\x97'
p6
I83
sS'\x9f'
p7
I59
sS' '
p8
I1
sS'$'
p9
I12
sS'\xa7'
p10
I32
sS'('
p11
I58
sS'\xab'
p12
I73
sS','
p13
I39
sS'\xaf'
p14
I95
sS'0'
p15
I38
sS'4'
p16
I45
sS'8'
p17
I49
sS'\xbb'
p18
I63
sS'<'
p19
I75
sS'@'
p20
I84
sS'\xc3'
p21
I18
sS'\\'
p22
I106
sS'd'
p23
I17
sS'h'
p24
I22
sS'l'
p25
I11
sS'p'
p26
I14
sS't'
p27
I9
sS'x'
p28
I34
sS'|'
p29
I96
sS'\x8c'
p30
I97
sS'\x90'
p31
I98
sS'\x94'
p32
I93
sS'\x98'
p33
I69
sS'\xa0'
p34
I31
sS'\xa4'
p35
I89
sS"'"
p36
I21
sS'\xa8'
p37
I40
sS'+'
p38
I70
sS'\xac'
p39
I57
sS'/'
p40
I56
sS'3'
p41
I43
sS'\xb4'
p42
I52
sS'7'
p43
I51
sS';'
p44
I68
sS'\xbc'
p45
I107
sS'?'
p46
I27
sS'['
p47
I99
sS'_'
p48
I78
sS'c'
p49
I15
sS'g'
p50
I29
sS'k'
p51
I30
sS'o'
p52
I6
sS'\xf0'
p53
I60
sS's'
p54
I4
sS'w'
p55
I46
sS'\x81'
p56
I108
sS'\x89'
p57
I100
sS'\n'
p58
I13
sS'\x8d'
p59
I76
sS'\x91'
p60
I71
sS'\x95'
p61
I90
sS'\x99'
p62
I109
sS'\x9d'
p63
I91
sS'"'
p64
I66
sS'&'
p65
I86
sS'\xa9'
p66
I23
sS'*'
p67
I64
sS'\xad'
p68
I74
sS'.'
p69
I28
sS'\xb1'
p70
I110
sS'2'
p71
I42
sS'6'
p72
I48
sS'\xb9'
p73
I54
sS':'
p74
I50
sS'\xbd'
p75
I101
sS'>'
p76
I85
sS'^'
p77
I79
sS'b'
p78
I24
sS'f'
p79
I25
sS'j'
p80
I20
sS'n'
p81
I10
sS'r'
p82
I8
sS'v'
p83
I19
sS'z'
p84
I35
sS'~'
p85
I87
sS'\x82'
p86
I62
sS'\x86'
p87
I111
sS'\x8a'
p88
I102
sS'\x8e'
p89
I88
sS'\x92'
p90
I77
sS'\x96'
p91
I112
sS'\x9a'
p92
I80
sS'!'
p93
I36
sS'\xa2'
p94
I65
sS'%'
p95
I67
sS')'
p96
I47
sS'\xaa'
p97
I41
sS'-'
p98
I53
sS'\xae'
p99
I81
sS'1'
p100
I37
sS'5'
p101
I44
sS'\xb6'
p102
I113
sS'9'
p103
I55
sS'\xba'
p104
I114
sS'='
p105
I72
sS']'
p106
I103
sS'a'
p107
I3
sS'\xe2'
p108
I61
sS'e'
p109
I2
sS'i'
p110
I5
sS'm'
p111
I16
sS'q'
p112
I26
sS'u'
p113
I7
sS'y'
p114
I33
s(dp115
I1
g8
sI2
g109
sI3
g107
sI4
g54
sI5
g110
sI6
g52
sI7
g113
sI8
g82
sI9
g27
sI10
g81
sI11
g25
sI12
g9
sI13
g58
sI14
g26
sI15
g49
sI16
g111
sI17
g23
sI18
g21
sI19
g83
sI20
g80
sI21
g36
sI22
g24
sI23
g66
sI24
g78
sI25
g79
sI26
g112
sI27
g46
sI28
g69
sI29
g50
sI30
g51
sI31
g34
sI32
g10
sI33
g114
sI34
g28
sI35
g84
sI36
g93
sI37
g100
sI38
g15
sI39
g13
sI40
g37
sI41
g97
sI42
g71
sI43
g41
sI44
g101
sI45
g16
sI46
g55
sI47
g96
sI48
g72
sI49
g17
sI50
g74
sI51
g43
sI52
g42
sI53
g98
sI54
g73
sI55
g103
sI56
g40
sI57
g39
sI58
g11
sI59
g7
sI60
g53
sI61
g108
sI62
g86
sI63
g18
sI64
g67
sI65
g94
sI66
g64
sI67
g95
sI68
g44
sI69
g33
sI70
g38
sI71
g60
sI72
g105
sI73
g12
sI74
g68
sI75
g19
sI76
g59
sI77
g90
sI78
g48
sI79
g77
sI80
g92
sI81
g99
sI82
g5
sI83
g6
sI84
g20
sI85
g76
sI86
g65
sI87
g85
sI88
g89
sI89
g35
sI90
g61
sI91
g63
sI92
g4
sI93
g32
sI94
g1
sI95
g14
sI96
g29
sI97
g30
sI98
g31
sI99
g47
sI100
g57
sI101
g75
sI102
g88
sI103
g106
sI104
g2
sI105
g3
sI106
g22
sI107
g45
sI108
g56
sI109
g62
sI110
g70
sI111
g87
sI112
g91
sI113
g102
sI114
g104
stp116
.